ccopy_reg
_reconstructor
p0
(cstate_graph
StateGraph
p1
c__builtin__
object
p2
Ntp3
Rp4
(dp5
S'neighbors'
p6
(dp7
sS'sources'
p8
(dp9
I0
(lp10
S'0-1111'
p11
asI1
(lp12
S'1-1111'
p13
assS'sinks'
p14
(dp15
I0
(lp16
S'1-9959'
p17
aS'1-9925'
p18
aS'1-9956'
p19
aS'1-9926'
p20
asI1
(lp21
S'0-5999'
p22
aS'0-2599'
p23
aS'0-5699'
p24
aS'0-2699'
p25
assS'dice_sides'
p26
(lp27
I1
aI2
asb.